; Function Attrs: mustprogress nounwind uwtable
define hidden noundef zeroext i1 @_ZN6google8protobuf8compiler6python15IsWellKnownTypeERKNSt7__cxx1112basic_stringIcSt11char_traitsIcESaIcEEE(ptr noundef nonnull align 8 dereferenceable(32) %name) local_unnamed_addr #4 {
entry:
  %call.i = tail call noundef i32 @_ZNKSt7__cxx1112basic_stringIcSt11char_traitsIcESaIcEE7compareEPKc(ptr noundef nonnull align 8 dereferenceable(32) %name, ptr noundef nonnull @.str.2) #24
  %cmp.i = icmp eq i32 %call.i, 0
  br i1 %cmp.i, label %lor.end, label %lor.lhs.false

lor.lhs.false:                                    ; preds = %entry
  %call.i6 = tail call noundef i32 @_ZNKSt7__cxx1112basic_stringIcSt11char_traitsIcESaIcEE7compareEPKc(ptr noundef nonnull align 8 dereferenceable(32) %name, ptr noundef nonnull @.str.3) #24
  %cmp.i7 = icmp eq i32 %call.i6, 0
  br i1 %cmp.i7, label %lor.end, label %lor.lhs.false2

lor.lhs.false2:                                   ; preds = %lor.lhs.false
  %call.i8 = tail call noundef i32 @_ZNKSt7__cxx1112basic_stringIcSt11char_traitsIcESaIcEE7compareEPKc(ptr noundef nonnull align 8 dereferenceable(32) %name, ptr noundef nonnull @.str.4) #24
  %cmp.i9 = icmp eq i32 %call.i8, 0
  br i1 %cmp.i9, label %lor.end, label %lor.lhs.false4

lor.lhs.false4:                                   ; preds = %lor.lhs.false2
  %call.i10 = tail call noundef i32 @_ZNKSt7__cxx1112basic_stringIcSt11char_traitsIcESaIcEE7compareEPKc(ptr noundef nonnull align 8 dereferenceable(32) %name, ptr noundef nonnull @.str.5) #24
  %cmp.i11 = icmp eq i32 %call.i10, 0
  br i1 %cmp.i11, label %lor.end, label %lor.lhs.false6

lor.lhs.false6:                                   ; preds = %lor.lhs.false4
  %call.i12 = tail call noundef i32 @_ZNKSt7__cxx1112basic_stringIcSt11char_traitsIcESaIcEE7compareEPKc(ptr noundef nonnull align 8 dereferenceable(32) %name, ptr noundef nonnull @.str.6) #24
  %cmp.i13 = icmp eq i32 %call.i12, 0
  br i1 %cmp.i13, label %lor.end, label %lor.rhs

lor.rhs:                                          ; preds = %lor.lhs.false6
  %call.i14 = tail call noundef i32 @_ZNKSt7__cxx1112basic_stringIcSt11char_traitsIcESaIcEE7compareEPKc(ptr noundef nonnull align 8 dereferenceable(32) %name, ptr noundef nonnull @.str.7) #24
  %cmp.i15 = icmp eq i32 %call.i14, 0
  br label %lor.end

lor.end:                                          ; preds = %lor.rhs, %lor.lhs.false6, %lor.lhs.false4, %lor.lhs.false2, %lor.lhs.false, %entry
  %0 = phi i1 [ true, %lor.lhs.false6 ], [ true, %lor.lhs.false4 ], [ true, %lor.lhs.false2 ], [ true, %lor.lhs.false ], [ true, %entry ], [ %cmp.i15, %lor.rhs ]
  ret i1 %0
}